(dp1
S'files'
p2
(dp3
S'compat'
p4
(dp5
S'index'
p6
(dp7
S'html_filename'
p8
S'compat.html'
p9
sS'name'
p10
g4
sS'nums'
p11
ccopy_reg
_reconstructor
p12
(ccoverage.results
Numbers
p13
c__builtin__
object
p14
NtRp15
(dp16
S'n_files'
p17
I1
sS'n_branches'
p18
I0
sS'n_statements'
p19
I8
sS'n_excluded'
p20
I15
sS'n_partial_branches'
p21
I0
sS'n_missing'
p22
I0
sS'n_missing_branches'
p23
I0
sbssS'hash'
p24
S'\rc\x1e\xcb\x1f\xe1\x88\xf3K\x86\xb8\xdc\xc2H\xa0\xab'
p25
ssS'catatom2osm'
p26
(dp27
g6
(dp28
g8
S'catatom2osm.html'
p29
sg10
g26
sg11
g12
(g13
g14
NtRp30
(dp31
g17
I1
sg18
I190
sg19
I454
sg20
I0
sg21
I24
sg22
I24
sg23
I26
sbssg24
S'o\xda\x01UH\xa9\x15\xfa\x15\x82f\xf0\xc3\xdcY\t'
p32
ssS'layer'
p33
(dp34
g6
(dp35
g8
S'layer.html'
p36
sg10
g33
sg11
g12
(g13
g14
NtRp37
(dp38
g17
I1
sg18
I548
sg19
I1137
sg20
I24
sg21
I68
sg22
I91
sg23
I86
sbssg24
S'\xc7Bz\tG\xd4BJ\xd6:\x88fM\r\x08\xa4'
p39
ssS'cdau'
p40
(dp41
g6
(dp42
g8
S'cdau.html'
p43
sg10
g40
sg11
g12
(g13
g14
NtRp44
(dp45
g17
I1
sg18
I48
sg19
I148
sg20
I0
sg21
I0
sg22
I58
sg23
I22
sbssg24
S'S/F\x98\xa7\xbdu\xd4\xc2\x8e!9E\x94\x19\xfb'
p46
ssS'osmxml'
p47
(dp48
g6
(dp49
g8
S'osmxml.html'
p50
sg10
g47
sg11
g12
(g13
g14
NtRp51
(dp52
g17
I1
sg18
I84
sg19
I119
sg20
I2
sg21
I3
sg22
I1
sg23
I3
sbssg24
S'o\xff=\xb5M$8j\xf8IR7\xe7\xc1\x100'
p53
ssS'hgwnames'
p54
(dp55
g6
(dp56
g8
S'hgwnames.html'
p57
sg10
g54
sg11
g12
(g13
g14
NtRp58
(dp59
g17
I1
sg18
I26
sg19
I56
sg20
I0
sg21
I0
sg22
I0
sg23
I0
sbssg24
S'\xfa9+W\xbb\xdd\xe6r\x83\x8f\x8c\x8e\xc8\xa5\xa4\xd8'
p60
ssS'overpass'
p61
(dp62
g6
(dp63
g8
S'overpass.html'
p64
sg10
g61
sg11
g12
(g13
g14
NtRp65
(dp66
g17
I1
sg18
I16
sg19
I49
sg20
I0
sg21
I0
sg22
I0
sg23
I0
sbssg24
S'`\xebr\xd1\x07\xd9r\x7f\x94\xb3\xe2\xf4&\xe6\xc0\x11'
p67
ssS'translate'
p68
(dp69
g6
(dp70
g8
S'translate.html'
p71
sg10
g68
sg11
g12
(g13
g14
NtRp72
(dp73
g17
I1
sg18
I32
sg19
I55
sg20
I0
sg21
I0
sg22
I0
sg23
I0
sbssg24
S'c\t)\xc4i\xf76\x11at\x16\xb2\x8a\xd5\x99\x98'
p74
ssS'setup'
p75
(dp76
g6
(dp77
g8
S'setup.html'
p78
sg10
g75
sg11
g12
(g13
g14
NtRp79
(dp80
g17
I1
sg18
I4
sg19
I62
sg20
I0
sg21
I0
sg22
I0
sg23
I0
sbssg24
S'o\xc5\xd4\xcaW\x90\xcd\xebQ\xd1\x9b\xf1\xc5qh\xb8'
p81
ssS'catatom'
p82
(dp83
g6
(dp84
g8
S'catatom.html'
p85
sg10
g82
sg11
g12
(g13
g14
NtRp86
(dp87
g17
I1
sg18
I50
sg19
I157
sg20
I0
sg21
I0
sg22
I0
sg23
I0
sbssg24
S'Q\xd3V\xa4D\x955\xa5)bm"\xf1n=\x99'
p88
ssS'report'
p89
(dp90
g6
(dp91
g8
S'report.html'
p92
sg10
g89
sg11
g12
(g13
g14
NtRp93
(dp94
g17
I1
sg18
I97
sg19
I153
sg20
I0
sg21
I7
sg22
I7
sg23
I7
sbssg24
S'\x05\xa2\xbf{(\xff\xfd\xc5\xae\xe0N\xa2\xb6\x8b\x1f\xfa'
p95
ssS'osm'
p96
(dp97
g6
(dp98
g8
S'osm.html'
p99
sg10
g96
sg11
g12
(g13
g14
NtRp100
(dp101
g17
I1
sg18
I128
sg19
I318
sg20
I0
sg21
I2
sg22
I0
sg23
I2
sbssg24
S'"\x8c\xe0\xbd\xf7\xc3"\x8b\xe6\x9b\xa1\x8e>tZ\x07'
p102
ssS'download'
p103
(dp104
g6
(dp105
g8
S'download.html'
p106
sg10
g103
sg11
g12
(g13
g14
NtRp107
(dp108
g17
I1
sg18
I10
sg19
I38
sg20
I0
sg21
I0
sg22
I0
sg23
I0
sbssg24
S'\xe6\xce\x9a\x05\x85x\xba -\xd6\xa6\x00\xd2\x80<\xfb'
p109
ssS'csvtools'
p110
(dp111
g6
(dp112
g8
S'csvtools.html'
p113
sg10
g110
sg11
g12
(g13
g14
NtRp114
(dp115
g17
I1
sg18
I8
sg19
I17
sg20
I0
sg21
I0
sg22
I0
sg23
I0
sbssg24
S'JR\x0c\xd1\x84\xc95*\xdf\xae\xc4\xfc\xf73.2'
p116
ssS'main'
p117
(dp118
g6
(dp119
g8
S'main.html'
p120
sg10
g117
sg11
g12
(g13
g14
NtRp121
(dp122
g17
I1
sg18
I26
sg19
I82
sg20
I2
sg21
I1
sg22
I6
sg23
I1
sbssg24
S'\x91*E\x7fX\xe0\xb3\xf8\xfb\xd7q\x8b".Z\xd8'
p123
sssS'version'
p124
S'3.7.1'
p125
sS'settings'
p126
S'{Ac\x892\xcb3/\x885\xd5\xaa\x9a\xc5\x8fZ'
p127
sS'format'
p128
I1
s.